target datalayout = "e-m:e-p270:32:32-p271:32:32-p272:64:64-i64:64-i128:128-f80:128-n8:16:32:64-S128"
target triple = "x86_64-pc-linux-gnu"

%struct.AVRational = type { i32, i32 }
%struct.InputStream = type { ptr, ptr, i32, ptr, i32, ptr, ptr, ptr, %struct.AVRational, i32, i32, ptr, i32 }
%struct.DemuxStream = type { %struct.InputStream, [32 x i8], i32, i32, double, i32, i32, i32, i32, i32, i32, i32, i32, i32, i32, i32, i64, i64, i64, ptr, ptr, %struct.DecoderOpts, [16 x i8], ptr, ptr, i64, i64, i64, i64, i64 }
%struct.DecoderOpts = type { i32, ptr, ptr, ptr, ptr, i32, i32, ptr, i32, %struct.AVRational, %struct.AVRational }
%struct.Demuxer = type { %struct.InputFile, [32 x i8], i64, i64, i64, i64, i32, i32, i32, %struct.Timestamp, %struct.Timestamp, %struct.Timestamp, i32, float, double, float, ptr, ptr, i32, i32, i32 }
%struct.InputFile = type { ptr, i32, ptr, i64, i32, i64, i64, i64, ptr, i32 }
%struct.Timestamp = type { i64, %struct.AVRational }
%struct.AVPacket = type { ptr, i64, i64, ptr, i32, i32, i32, ptr, i32, i64, i64, ptr, ptr, %struct.AVRational }

@.str.73 = private unnamed_addr constant [39 x i8] c"All consumers of this stream are done\0A\00", align 1
@.str.74 = private unnamed_addr constant [24 x i8] c"All consumers are done\0A\00", align 1
@.str.75 = private unnamed_addr constant [43 x i8] c"Unable to send %s packet to consumers: %s\0A\00", align 1

; Function Attrs: inlinehint nounwind uwtable
define internal ptr @av_make_error_string(ptr noundef %0, i64 noundef %1, i32 noundef %2) #6 {
  %4 = alloca ptr, align 8
  %5 = alloca i64, align 8
  %6 = alloca i32, align 4
  store ptr %0, ptr %4, align 8, !tbaa !180
  store i64 %1, ptr %5, align 8, !tbaa !58
  store i32 %2, ptr %6, align 4, !tbaa !4
  %7 = load i32, ptr %6, align 4, !tbaa !4
  %8 = load ptr, ptr %4, align 8, !tbaa !180
  %9 = load i64, ptr %5, align 8, !tbaa !58
  %10 = call i32 @av_strerror(i32 noundef %7, ptr noundef %8, i64 noundef %9)
  %11 = load ptr, ptr %4, align 8, !tbaa !180
  ret ptr %11
}

; Function Attrs: nounwind uwtable
define internal i32 @do_send(ptr noundef %0, ptr noundef %1, ptr noundef %2, i32 noundef %3, ptr noundef %4) #0 {
  %6 = alloca i32, align 4
  %7 = alloca ptr, align 8
  %8 = alloca ptr, align 8
  %9 = alloca ptr, align 8
  %10 = alloca i32, align 4
  %11 = alloca ptr, align 8
  %12 = alloca i32, align 4
  %13 = alloca i32, align 4
  %14 = alloca [64 x i8], align 1
  store ptr %0, ptr %7, align 8, !tbaa !44
  store ptr %1, ptr %8, align 8, !tbaa !11
  store ptr %2, ptr %9, align 8, !tbaa !351
  store i32 %3, ptr %10, align 4, !tbaa !4
  store ptr %4, ptr %11, align 8, !tbaa !180
  call void @llvm.lifetime.start.p0(i64 4, ptr %12) #12
  %15 = load ptr, ptr %8, align 8, !tbaa !11
  %16 = getelementptr inbounds nuw %struct.DemuxStream, ptr %15, i32 0, i32 2
  %17 = load i32, ptr %16, align 8, !tbaa !88
  %18 = load ptr, ptr %9, align 8, !tbaa !351
  %19 = getelementptr inbounds nuw %struct.AVPacket, ptr %18, i32 0, i32 5
  store i32 %17, ptr %19, align 4, !tbaa !273
  %20 = load ptr, ptr %7, align 8, !tbaa !44
  %21 = getelementptr inbounds nuw %struct.Demuxer, ptr %20, i32 0, i32 16
  %22 = load ptr, ptr %21, align 8, !tbaa !89
  %23 = load ptr, ptr %7, align 8, !tbaa !44
  %24 = getelementptr inbounds nuw %struct.Demuxer, ptr %23, i32 0, i32 0
  %25 = getelementptr inbounds nuw %struct.InputFile, ptr %24, i32 0, i32 1
  %26 = load i32, ptr %25, align 8, !tbaa !90
  %27 = load ptr, ptr %9, align 8, !tbaa !351
  %28 = load i32, ptr %10, align 4, !tbaa !4
  %29 = call i32 @sch_demux_send(ptr noundef %22, i32 noundef %26, ptr noundef %27, i32 noundef %28)
  store i32 %29, ptr %12, align 4, !tbaa !4
  %30 = load i32, ptr %12, align 4, !tbaa !4
  %31 = icmp eq i32 %30, -541478725
  br i1 %31, label %32, label %48

32:                                               ; preds = %5
  %33 = load ptr, ptr %9, align 8, !tbaa !351
  call void @av_packet_unref(ptr noundef %33)
  %34 = load ptr, ptr %8, align 8, !tbaa !11
  call void (ptr, i32, ptr, ...) @av_log(ptr noundef %34, i32 noundef 40, ptr noundef @.str.73)
  %35 = load ptr, ptr %8, align 8, !tbaa !11
  %36 = getelementptr inbounds nuw %struct.DemuxStream, ptr %35, i32 0, i32 7
  store i32 1, ptr %36, align 8, !tbaa !275
  %37 = load ptr, ptr %7, align 8, !tbaa !44
  %38 = getelementptr inbounds nuw %struct.Demuxer, ptr %37, i32 0, i32 20
  %39 = load i32, ptr %38, align 8, !tbaa !387
  %40 = add nsw i32 %39, 1
  store i32 %40, ptr %38, align 8, !tbaa !387
  %41 = load ptr, ptr %7, align 8, !tbaa !44
  %42 = getelementptr inbounds nuw %struct.Demuxer, ptr %41, i32 0, i32 19
  %43 = load i32, ptr %42, align 4, !tbaa !91
  %44 = icmp eq i32 %40, %43
  br i1 %44, label %45, label %47

45:                                               ; preds = %32
  %46 = load ptr, ptr %7, align 8, !tbaa !44
  call void (ptr, i32, ptr, ...) @av_log(ptr noundef %46, i32 noundef 40, ptr noundef @.str.74)
  store i32 -541478725, ptr %6, align 4
  store i32 1, ptr %13, align 4
  br label %64

47:                                               ; preds = %32
  br label %63

48:                                               ; preds = %5
  %49 = load i32, ptr %12, align 4, !tbaa !4
  %50 = icmp slt i32 %49, 0
  br i1 %50, label %51, label %62

51:                                               ; preds = %48
  %52 = load i32, ptr %12, align 4, !tbaa !4
  %53 = icmp ne i32 %52, -1414092869
  br i1 %53, label %54, label %60

54:                                               ; preds = %51
  %55 = load ptr, ptr %7, align 8, !tbaa !44
  %56 = load ptr, ptr %11, align 8, !tbaa !180
  call void @llvm.memset.p0.i64(ptr align 1 %14, i8 0, i64 64, i1 false)
  %57 = getelementptr inbounds [64 x i8], ptr %14, i64 0, i64 0
  %58 = load i32, ptr %12, align 4, !tbaa !4
  %59 = call ptr @av_make_error_string(ptr noundef %57, i64 noundef 64, i32 noundef %58)
  call void (ptr, i32, ptr, ...) @av_log(ptr noundef %55, i32 noundef 16, ptr noundef @.str.75, ptr noundef %56, ptr noundef %59)
  br label %60

60:                                               ; preds = %54, %51
  %61 = load i32, ptr %12, align 4, !tbaa !4
  store i32 %61, ptr %6, align 4
  store i32 1, ptr %13, align 4
  br label %64

62:                                               ; preds = %48
  br label %63

63:                                               ; preds = %62, %47
  store i32 0, ptr %6, align 4
  store i32 1, ptr %13, align 4
  br label %64

64:                                               ; preds = %63, %60, %45
  call void @llvm.lifetime.end.p0(i64 4, ptr %12) #12
  %65 = load i32, ptr %6, align 4
  ret i32 %65
}