; Function Attrs: nounwind uwtable
define internal fastcc range(i32 -2147483648, 1) i32 @do_send(ptr noundef %0, ptr noundef %1, ptr noundef initializes((36, 40)) %2, i32 noundef %3, ptr noundef %4) unnamed_addr #0 {
  %6 = alloca [64 x i8], align 1
  %7 = getelementptr inbounds nuw i8, ptr %1, i64 128
  %8 = load i32, ptr %7, align 8, !tbaa !75
  %9 = getelementptr inbounds nuw i8, ptr %2, i64 36
  store i32 %8, ptr %9, align 4, !tbaa !300
  %10 = getelementptr inbounds nuw i8, ptr %0, i64 232
  %11 = load ptr, ptr %10, align 8, !tbaa !76
  %12 = getelementptr inbounds nuw i8, ptr %0, i64 8
  %13 = load i32, ptr %12, align 8, !tbaa !77
  %14 = tail call i32 @sch_demux_send(ptr noundef %11, i32 noundef %13, ptr noundef %2, i32 noundef %3) #14
  %15 = icmp eq i32 %14, -541478725
  br i1 %15, label %16, label %25

16:                                               ; preds = %5
  tail call void @av_packet_unref(ptr noundef nonnull %2) #14
  tail call void (ptr, i32, ptr, ...) @av_log(ptr noundef nonnull %1, i32 noundef 40, ptr noundef nonnull @.str.73) #14
  %17 = getelementptr inbounds nuw i8, ptr %1, i64 152
  store i32 1, ptr %17, align 8, !tbaa !305
  %18 = getelementptr inbounds nuw i8, ptr %0, i64 256
  %19 = load i32, ptr %18, align 8, !tbaa !343
  %20 = add nsw i32 %19, 1
  store i32 %20, ptr %18, align 8, !tbaa !343
  %21 = getelementptr inbounds nuw i8, ptr %0, i64 252
  %22 = load i32, ptr %21, align 4, !tbaa !78
  %23 = icmp eq i32 %20, %22
  br i1 %23, label %24, label %30

24:                                               ; preds = %16
  tail call void (ptr, i32, ptr, ...) @av_log(ptr noundef nonnull %0, i32 noundef 40, ptr noundef nonnull @.str.74) #14
  br label %30

25:                                               ; preds = %5
  %26 = icmp slt i32 %14, 0
  br i1 %26, label %27, label %30

27:                                               ; preds = %25
  %.not = icmp eq i32 %14, -1414092869
  br i1 %.not, label %30, label %28

28:                                               ; preds = %27
  call void @llvm.memset.p0.i64(ptr noundef nonnull align 1 dereferenceable(64) %6, i8 0, i64 64, i1 false)
  %29 = call i32 @av_strerror(i32 noundef %14, ptr noundef nonnull %6, i64 noundef 64) #14
  call void (ptr, i32, ptr, ...) @av_log(ptr noundef nonnull %0, i32 noundef 16, ptr noundef nonnull @.str.75, ptr noundef %4, ptr noundef nonnull %6) #14
  br label %30

30:                                               ; preds = %16, %25, %27, %28, %24
  %.0 = phi i32 [ -541478725, %24 ], [ %14, %28 ], [ -1414092869, %27 ], [ 0, %25 ], [ 0, %16 ]
  ret i32 %.0
}